; Function Attrs: nofree norecurse nosync nounwind memory(readwrite, inaccessiblemem: none) uwtable
define void @Gia_ManBuiltInSimResimulate(ptr noundef readonly captures(none) %0) local_unnamed_addr #10 {
  %2 = getelementptr i8, ptr %0, i64 32
  %3 = getelementptr inbounds nuw i8, ptr %0, i64 24
  %4 = load i32, ptr %3, align 8, !tbaa !43
  %5 = icmp sgt i32 %4, 0
  br i1 %5, label %.lr.ph, label %.critedge

.lr.ph:                                           ; preds = %1, %14
  %6 = phi i32 [ %15, %14 ], [ %4, %1 ]
  %indvars.iv = phi i64 [ %indvars.iv.next, %14 ], [ 0, %1 ]
  %.val = load ptr, ptr %2, align 8, !tbaa !16
  %.not = icmp eq ptr %.val, null
  br i1 %.not, label %.critedge, label %7

7:                                                ; preds = %.lr.ph
  %8 = getelementptr inbounds nuw %struct.Gia_Obj_t_, ptr %.val, i64 %indvars.iv
  %.val9 = load i64, ptr %8, align 4
  %9 = and i64 %.val9, 2147483648
  %.not.i = icmp ne i64 %9, 0
  %10 = and i64 %.val9, 536870911
  %11 = icmp eq i64 %10, 536870911
  %narrow.i.not = or i1 %.not.i, %11
  br i1 %narrow.i.not, label %14, label %12

12:                                               ; preds = %7
  %13 = trunc nuw nsw i64 %indvars.iv to i32
  tail call void @Gia_ManBuiltInSimPerformInt(ptr noundef nonnull %0, i32 noundef %13)
  %.pre = load i32, ptr %3, align 8, !tbaa !43
  br label %14

14:                                               ; preds = %12, %7
  %15 = phi i32 [ %.pre, %12 ], [ %6, %7 ]
  %indvars.iv.next = add nuw nsw i64 %indvars.iv, 1
  %16 = sext i32 %15 to i64
  %17 = icmp slt i64 %indvars.iv.next, %16
  br i1 %17, label %.lr.ph, label %.critedge, !llvm.loop !134

.critedge:                                        ; preds = %.lr.ph, %14, %1
  ret void
}